; Function Attrs: inlinehint mustprogress nounwind uwtable
define internal fastcc void @_ZNSt4pairIN12_GLOBAL__N_15IdBitES1_ED2Ev(ptr noundef nonnull readonly align 4 captures(none) dereferenceable(16) %0) unnamed_addr #4 align 2 personality ptr @__gxx_personality_v0 {
  %2 = getelementptr inbounds nuw i8, ptr %0, i64 8
  %.val1 = load i32, ptr %2, align 4, !tbaa !82
  %3 = load i8, ptr @_ZN5Yosys5RTLIL8IdString17destruct_guard_okE, align 1, !tbaa !85, !range !87, !noundef !88
  %4 = trunc nuw i8 %3 to i1
  %5 = icmp ne i32 %.val1, 0
  %or.cond.i.i.i = and i1 %5, %4
  br i1 %or.cond.i.i.i, label %6, label %_ZN12_GLOBAL__N_15IdBitD2Ev.exit

6:                                                ; preds = %1
  %7 = sext i32 %.val1 to i64
  %8 = load ptr, ptr @_ZN5Yosys5RTLIL8IdString24global_refcount_storage_E, align 8, !tbaa !83
  %9 = getelementptr inbounds nuw i32, ptr %8, i64 %7
  %10 = load i32, ptr %9, align 4, !tbaa !60
  %11 = add nsw i32 %10, -1
  store i32 %11, ptr %9, align 4, !tbaa !60
  %12 = icmp sgt i32 %10, 1
  br i1 %12, label %_ZN12_GLOBAL__N_15IdBitD2Ev.exit, label %13

13:                                               ; preds = %6
  invoke void @_ZN5Yosys5RTLIL8IdString14free_referenceEi(i32 noundef %.val1)
          to label %._ZN12_GLOBAL__N_15IdBitD2Ev.exit_crit_edge unwind label %14

._ZN12_GLOBAL__N_15IdBitD2Ev.exit_crit_edge:      ; preds = %13
  %.pre = load i8, ptr @_ZN5Yosys5RTLIL8IdString17destruct_guard_okE, align 1, !tbaa !85, !range !87
  br label %_ZN12_GLOBAL__N_15IdBitD2Ev.exit

14:                                               ; preds = %13
  %15 = landingpad { ptr, i32 }
          catch ptr null
  %16 = extractvalue { ptr, i32 } %15, 0
  tail call void @__clang_call_terminate(ptr %16) #32
  unreachable

_ZN12_GLOBAL__N_15IdBitD2Ev.exit:                 ; preds = %._ZN12_GLOBAL__N_15IdBitD2Ev.exit_crit_edge, %1, %6
  %17 = phi i8 [ %.pre, %._ZN12_GLOBAL__N_15IdBitD2Ev.exit_crit_edge ], [ %3, %1 ], [ 1, %6 ]
  %.val = load i32, ptr %0, align 4, !tbaa !82
  %18 = trunc nuw i8 %17 to i1
  %19 = icmp ne i32 %.val, 0
  %or.cond.i.i.i2 = and i1 %19, %18
  br i1 %or.cond.i.i.i2, label %20, label %_ZN12_GLOBAL__N_15IdBitD2Ev.exit3

20:                                               ; preds = %_ZN12_GLOBAL__N_15IdBitD2Ev.exit
  %21 = sext i32 %.val to i64
  %22 = load ptr, ptr @_ZN5Yosys5RTLIL8IdString24global_refcount_storage_E, align 8, !tbaa !83
  %23 = getelementptr inbounds nuw i32, ptr %22, i64 %21
  %24 = load i32, ptr %23, align 4, !tbaa !60
  %25 = add nsw i32 %24, -1
  store i32 %25, ptr %23, align 4, !tbaa !60
  %26 = icmp sgt i32 %24, 1
  br i1 %26, label %_ZN12_GLOBAL__N_15IdBitD2Ev.exit3, label %27

27:                                               ; preds = %20
  invoke void @_ZN5Yosys5RTLIL8IdString14free_referenceEi(i32 noundef %.val)
          to label %_ZN12_GLOBAL__N_15IdBitD2Ev.exit3 unwind label %28

28:                                               ; preds = %27
  %29 = landingpad { ptr, i32 }
          catch ptr null
  %30 = extractvalue { ptr, i32 } %29, 0
  tail call void @__clang_call_terminate(ptr %30) #32
  unreachable

_ZN12_GLOBAL__N_15IdBitD2Ev.exit3:                ; preds = %_ZN12_GLOBAL__N_15IdBitD2Ev.exit, %20, %27
  ret void
}